; Function Attrs: mustprogress uwtable
define noundef i64 @_Z18logged_rv64i_sraiwP11processor_t6insn_tm(ptr noundef %0, i64 %1, i64 noundef %2) local_unnamed_addr #9 {
  %4 = alloca i64, align 8
  %5 = getelementptr inbounds nuw i8, ptr %0, i64 256
  %6 = lshr i64 %1, 15
  %7 = and i64 %6, 31
  %8 = getelementptr inbounds nuw [32 x i64], ptr %5, i64 0, i64 %7
  %9 = load i64, ptr %8, align 8, !tbaa !14
  %10 = trunc i64 %9 to i32
  %11 = trunc i64 %1 to i32
  %12 = lshr i32 %11, 20
  %13 = and i32 %12, 63
  %14 = ashr i32 %10, %13
  %15 = sext i32 %14 to i64
  %16 = getelementptr inbounds nuw i8, ptr %0, i64 3840
  call void @llvm.lifetime.start.p0(i64 8, ptr nonnull %4) #16
  %17 = lshr i64 %1, 7
  %18 = and i64 %17, 31
  %19 = shl nuw nsw i64 %18, 4
  store i64 %19, ptr %4, align 8, !tbaa !14
  %20 = call noundef nonnull align 8 dereferenceable(16) ptr @_ZNSt3mapIm10float128_tSt4lessImESaISt4pairIKmS0_EEEixEOm(ptr noundef nonnull align 8 dereferenceable(48) %16, ptr noundef nonnull align 8 dereferenceable(8) %4)
  store i64 %15, ptr %20, align 8
  %.sroa.4.0..sroa_idx = getelementptr inbounds nuw i8, ptr %20, i64 8
  store i64 0, ptr %.sroa.4.0..sroa_idx, align 8, !tbaa !15
  call void @llvm.lifetime.end.p0(i64 8, ptr nonnull %4) #16
  %.not.i = icmp eq i64 %18, 0
  br i1 %.not.i, label %_ZN9regfile_tImLm32ELb1EE5writeEmm.exit, label %21

21:                                               ; preds = %3
  %22 = getelementptr inbounds nuw [32 x i64], ptr %5, i64 0, i64 %18
  store i64 %15, ptr %22, align 8, !tbaa !14
  br label %_ZN9regfile_tImLm32ELb1EE5writeEmm.exit

_ZN9regfile_tImLm32ELb1EE5writeEmm.exit:          ; preds = %3, %21
  %23 = add i64 %2, 4
  ret i64 %23
}